target datalayout = "e-m:e-p270:32:32-p271:32:32-p272:64:64-i64:64-i128:128-f80:128-n8:16:32:64-S128"
target triple = "x86_64-pc-linux-gnu"

; Function Attrs: inlinehint nounwind uwtable
define internal ptr @Abc_UtilStrsav(ptr noundef %0) #5 {
  %2 = alloca ptr, align 8
  store ptr %0, ptr %2, align 8, !tbaa !3
  %3 = load ptr, ptr %2, align 8, !tbaa !3
  %4 = icmp ne ptr %3, null
  br i1 %4, label %5, label %13

5:                                                ; preds = %1
  %6 = load ptr, ptr %2, align 8, !tbaa !3
  %7 = call i64 @strlen(ptr noundef %6) #11
  %8 = add i64 %7, 1
  %9 = mul i64 1, %8
  %10 = call noalias ptr @malloc(i64 noundef %9) #12
  %11 = load ptr, ptr %2, align 8, !tbaa !3
  %12 = call ptr @strcpy(ptr noundef %10, ptr noundef %11) #10
  br label %14

13:                                               ; preds = %1
  br label %14

14:                                               ; preds = %13, %5
  %15 = phi ptr [ %12, %5 ], [ null, %13 ]
  ret ptr %15
}

; Function Attrs: nounwind uwtable
define ptr @Mio_LibraryCleanStr(ptr noundef %0) #0 {
  %2 = alloca ptr, align 8
  %3 = alloca i32, align 4
  %4 = alloca i32, align 4
  %5 = alloca i32, align 4
  %6 = alloca ptr, align 8
  store ptr %0, ptr %2, align 8, !tbaa !3
  call void @llvm.lifetime.start.p0(i64 4, ptr %3) #10
  call void @llvm.lifetime.start.p0(i64 4, ptr %4) #10
  call void @llvm.lifetime.start.p0(i64 4, ptr %5) #10
  store i32 0, ptr %5, align 4, !tbaa !8
  call void @llvm.lifetime.start.p0(i64 8, ptr %6) #10
  %7 = load ptr, ptr %2, align 8, !tbaa !3
  %8 = call ptr @Abc_UtilStrsav(ptr noundef %7)
  store ptr %8, ptr %6, align 8, !tbaa !3
  store i32 0, ptr %4, align 4, !tbaa !8
  store i32 0, ptr %3, align 4, !tbaa !8
  br label %9

9:                                                ; preds = %147, %1
  %10 = load ptr, ptr %6, align 8, !tbaa !3
  %11 = load i32, ptr %3, align 4, !tbaa !8
  %12 = sext i32 %11 to i64
  %13 = getelementptr inbounds i8, ptr %10, i64 %12
  %14 = load i8, ptr %13, align 1, !tbaa !33
  %15 = icmp ne i8 %14, 0
  br i1 %15, label %16, label %150

16:                                               ; preds = %9
  %17 = load ptr, ptr %6, align 8, !tbaa !3
  %18 = load i32, ptr %3, align 4, !tbaa !8
  %19 = sext i32 %18 to i64
  %20 = getelementptr inbounds i8, ptr %17, i64 %19
  %21 = load i8, ptr %20, align 1, !tbaa !33
  %22 = sext i8 %21 to i32
  %23 = icmp ne i32 %22, 32
  br i1 %23, label %24, label %142

24:                                               ; preds = %16
  %25 = load ptr, ptr %6, align 8, !tbaa !3
  %26 = load i32, ptr %3, align 4, !tbaa !8
  %27 = sext i32 %26 to i64
  %28 = getelementptr inbounds i8, ptr %25, i64 %27
  %29 = load i8, ptr %28, align 1, !tbaa !33
  %30 = sext i8 %29 to i32
  %31 = icmp ne i32 %30, 9
  br i1 %31, label %32, label %142

32:                                               ; preds = %24
  %33 = load ptr, ptr %6, align 8, !tbaa !3
  %34 = load i32, ptr %3, align 4, !tbaa !8
  %35 = sext i32 %34 to i64
  %36 = getelementptr inbounds i8, ptr %33, i64 %35
  %37 = load i8, ptr %36, align 1, !tbaa !33
  %38 = sext i8 %37 to i32
  %39 = icmp ne i32 %38, 13
  br i1 %39, label %40, label %142

40:                                               ; preds = %32
  %41 = load ptr, ptr %6, align 8, !tbaa !3
  %42 = load i32, ptr %3, align 4, !tbaa !8
  %43 = sext i32 %42 to i64
  %44 = getelementptr inbounds i8, ptr %41, i64 %43
  %45 = load i8, ptr %44, align 1, !tbaa !33
  %46 = sext i8 %45 to i32
  %47 = icmp ne i32 %46, 10
  br i1 %47, label %48, label %142

48:                                               ; preds = %40
  %49 = load ptr, ptr %6, align 8, !tbaa !3
  %50 = load i32, ptr %3, align 4, !tbaa !8
  %51 = sext i32 %50 to i64
  %52 = getelementptr inbounds i8, ptr %49, i64 %51
  %53 = load i8, ptr %52, align 1, !tbaa !33
  %54 = sext i8 %53 to i32
  %55 = icmp ne i32 %54, 40
  br i1 %55, label %56, label %130

56:                                               ; preds = %48
  %57 = load ptr, ptr %6, align 8, !tbaa !3
  %58 = load i32, ptr %3, align 4, !tbaa !8
  %59 = sext i32 %58 to i64
  %60 = getelementptr inbounds i8, ptr %57, i64 %59
  %61 = load i8, ptr %60, align 1, !tbaa !33
  %62 = sext i8 %61 to i32
  %63 = icmp ne i32 %62, 41
  br i1 %63, label %64, label %130

64:                                               ; preds = %56
  %65 = load ptr, ptr %6, align 8, !tbaa !3
  %66 = load i32, ptr %3, align 4, !tbaa !8
  %67 = sext i32 %66 to i64
  %68 = getelementptr inbounds i8, ptr %65, i64 %67
  %69 = load i8, ptr %68, align 1, !tbaa !33
  %70 = sext i8 %69 to i32
  %71 = icmp ne i32 %70, 43
  br i1 %71, label %72, label %130

72:                                               ; preds = %64
  %73 = load ptr, ptr %6, align 8, !tbaa !3
  %74 = load i32, ptr %3, align 4, !tbaa !8
  %75 = sext i32 %74 to i64
  %76 = getelementptr inbounds i8, ptr %73, i64 %75
  %77 = load i8, ptr %76, align 1, !tbaa !33
  %78 = sext i8 %77 to i32
  %79 = icmp ne i32 %78, 42
  br i1 %79, label %80, label %130

80:                                               ; preds = %72
  %81 = load ptr, ptr %6, align 8, !tbaa !3
  %82 = load i32, ptr %3, align 4, !tbaa !8
  %83 = sext i32 %82 to i64
  %84 = getelementptr inbounds i8, ptr %81, i64 %83
  %85 = load i8, ptr %84, align 1, !tbaa !33
  %86 = sext i8 %85 to i32
  %87 = icmp ne i32 %86, 124
  br i1 %87, label %88, label %130

88:                                               ; preds = %80
  %89 = load ptr, ptr %6, align 8, !tbaa !3
  %90 = load i32, ptr %3, align 4, !tbaa !8
  %91 = sext i32 %90 to i64
  %92 = getelementptr inbounds i8, ptr %89, i64 %91
  %93 = load i8, ptr %92, align 1, !tbaa !33
  %94 = sext i8 %93 to i32
  %95 = icmp ne i32 %94, 38
  br i1 %95, label %96, label %130

96:                                               ; preds = %88
  %97 = load ptr, ptr %6, align 8, !tbaa !3
  %98 = load i32, ptr %3, align 4, !tbaa !8
  %99 = sext i32 %98 to i64
  %100 = getelementptr inbounds i8, ptr %97, i64 %99
  %101 = load i8, ptr %100, align 1, !tbaa !33
  %102 = sext i8 %101 to i32
  %103 = icmp ne i32 %102, 94
  br i1 %103, label %104, label %130

104:                                              ; preds = %96
  %105 = load ptr, ptr %6, align 8, !tbaa !3
  %106 = load i32, ptr %3, align 4, !tbaa !8
  %107 = sext i32 %106 to i64
  %108 = getelementptr inbounds i8, ptr %105, i64 %107
  %109 = load i8, ptr %108, align 1, !tbaa !33
  %110 = sext i8 %109 to i32
  %111 = icmp ne i32 %110, 39
  br i1 %111, label %112, label %130

112:                                              ; preds = %104
  %113 = load ptr, ptr %6, align 8, !tbaa !3
  %114 = load i32, ptr %3, align 4, !tbaa !8
  %115 = sext i32 %114 to i64
  %116 = getelementptr inbounds i8, ptr %113, i64 %115
  %117 = load i8, ptr %116, align 1, !tbaa !33
  %118 = sext i8 %117 to i32
  %119 = icmp ne i32 %118, 33
  br i1 %119, label %120, label %130

120:                                              ; preds = %112
  %121 = load i32, ptr %5, align 4, !tbaa !8
  %122 = icmp eq i32 %121, 2
  br i1 %122, label %123, label %129

123:                                              ; preds = %120
  %124 = load ptr, ptr %6, align 8, !tbaa !3
  %125 = load i32, ptr %4, align 4, !tbaa !8
  %126 = add nsw i32 %125, 1
  store i32 %126, ptr %4, align 4, !tbaa !8
  %127 = sext i32 %125 to i64
  %128 = getelementptr inbounds i8, ptr %124, i64 %127
  store i8 32, ptr %128, align 1, !tbaa !33
  br label %129

129:                                              ; preds = %123, %120
  store i32 1, ptr %5, align 4, !tbaa !8
  br label %131

130:                                              ; preds = %112, %104, %96, %88, %80, %72, %64, %56, %48
  store i32 0, ptr %5, align 4, !tbaa !8
  br label %131

131:                                              ; preds = %130, %129
  %132 = load ptr, ptr %6, align 8, !tbaa !3
  %133 = load i32, ptr %3, align 4, !tbaa !8
  %134 = sext i32 %133 to i64
  %135 = getelementptr inbounds i8, ptr %132, i64 %134
  %136 = load i8, ptr %135, align 1, !tbaa !33
  %137 = load ptr, ptr %6, align 8, !tbaa !3
  %138 = load i32, ptr %4, align 4, !tbaa !8
  %139 = add nsw i32 %138, 1
  store i32 %139, ptr %4, align 4, !tbaa !8
  %140 = sext i32 %138 to i64
  %141 = getelementptr inbounds i8, ptr %137, i64 %140
  store i8 %136, ptr %141, align 1, !tbaa !33
  br label %146

142:                                              ; preds = %40, %32, %24, %16
  %143 = load i32, ptr %5, align 4, !tbaa !8
  %144 = icmp ne i32 %143, 0
  %145 = select i1 %144, i32 2, i32 0
  store i32 %145, ptr %5, align 4, !tbaa !8
  br label %146

146:                                              ; preds = %142, %131
  br label %147

147:                                              ; preds = %146
  %148 = load i32, ptr %3, align 4, !tbaa !8
  %149 = add nsw i32 %148, 1
  store i32 %149, ptr %3, align 4, !tbaa !8
  br label %9, !llvm.loop !68

150:                                              ; preds = %9
  %151 = load ptr, ptr %6, align 8, !tbaa !3
  %152 = load i32, ptr %4, align 4, !tbaa !8
  %153 = sext i32 %152 to i64
  %154 = getelementptr inbounds i8, ptr %151, i64 %153
  store i8 0, ptr %154, align 1, !tbaa !33
  %155 = load ptr, ptr %6, align 8, !tbaa !3
  call void @llvm.lifetime.end.p0(i64 8, ptr %6) #10
  call void @llvm.lifetime.end.p0(i64 4, ptr %5) #10
  call void @llvm.lifetime.end.p0(i64 4, ptr %4) #10
  call void @llvm.lifetime.end.p0(i64 4, ptr %3) #10
  ret ptr %155
}