; Function Attrs: nofree nounwind uwtable
define noundef ptr @Mio_LibraryCleanStr(ptr noundef readonly %0) local_unnamed_addr #8 {
  %.not.i = icmp eq ptr %0, null
  br i1 %.not.i, label %Abc_UtilStrsav.exit, label %2

2:                                                ; preds = %1
  %3 = tail call i64 @strlen(ptr noundef nonnull readonly dereferenceable(1) %0) #18
  %4 = add i64 %3, 1
  %5 = tail call noalias ptr @malloc(i64 noundef %4) #19
  %6 = tail call ptr @strcpy(ptr noundef nonnull dereferenceable(1) %5, ptr noundef nonnull readonly dereferenceable(1) %0) #17
  br label %Abc_UtilStrsav.exit

Abc_UtilStrsav.exit:                              ; preds = %1, %2
  %7 = phi ptr [ %5, %2 ], [ null, %1 ]
  br label %8

8:                                                ; preds = %24, %Abc_UtilStrsav.exit
  %indvars.iv = phi i64 [ %indvars.iv.next, %24 ], [ 0, %Abc_UtilStrsav.exit ]
  %.041 = phi i32 [ %.3, %24 ], [ 0, %Abc_UtilStrsav.exit ]
  %.040 = phi i32 [ %.2, %24 ], [ 0, %Abc_UtilStrsav.exit ]
  %9 = getelementptr inbounds nuw i8, ptr %7, i64 %indvars.iv
  %10 = load i8, ptr %9, align 1, !tbaa !25
  switch i8 %10, label %11 [
    i8 0, label %25
    i8 32, label %22
    i8 9, label %22
    i8 13, label %22
    i8 10, label %22
    i8 40, label %17
    i8 41, label %17
    i8 43, label %17
    i8 42, label %17
    i8 124, label %17
    i8 38, label %17
    i8 94, label %17
    i8 39, label %17
    i8 33, label %17
  ]

11:                                               ; preds = %8
  %12 = icmp eq i32 %.040, 2
  br i1 %12, label %13, label %17

13:                                               ; preds = %11
  %14 = add nsw i32 %.041, 1
  %15 = sext i32 %.041 to i64
  %16 = getelementptr inbounds i8, ptr %7, i64 %15
  store i8 32, ptr %16, align 1, !tbaa !25
  %.pre = load i8, ptr %9, align 1, !tbaa !25
  br label %17

17:                                               ; preds = %8, %8, %8, %8, %8, %8, %8, %8, %8, %11, %13
  %18 = phi i8 [ %.pre, %13 ], [ %10, %11 ], [ %10, %8 ], [ %10, %8 ], [ %10, %8 ], [ %10, %8 ], [ %10, %8 ], [ %10, %8 ], [ %10, %8 ], [ %10, %8 ], [ %10, %8 ]
  %.243 = phi i32 [ %14, %13 ], [ %.041, %11 ], [ %.041, %8 ], [ %.041, %8 ], [ %.041, %8 ], [ %.041, %8 ], [ %.041, %8 ], [ %.041, %8 ], [ %.041, %8 ], [ %.041, %8 ], [ %.041, %8 ]
  %.1 = phi i32 [ 1, %13 ], [ 1, %11 ], [ 0, %8 ], [ 0, %8 ], [ 0, %8 ], [ 0, %8 ], [ 0, %8 ], [ 0, %8 ], [ 0, %8 ], [ 0, %8 ], [ 0, %8 ]
  %19 = add nsw i32 %.243, 1
  %20 = sext i32 %.243 to i64
  %21 = getelementptr inbounds i8, ptr %7, i64 %20
  store i8 %18, ptr %21, align 1, !tbaa !25
  br label %24

22:                                               ; preds = %8, %8, %8, %8
  %.not50 = icmp eq i32 %.040, 0
  %23 = select i1 %.not50, i32 0, i32 2
  br label %24

24:                                               ; preds = %17, %22
  %.3 = phi i32 [ %19, %17 ], [ %.041, %22 ]
  %.2 = phi i32 [ %.1, %17 ], [ %23, %22 ]
  %indvars.iv.next = add nuw nsw i64 %indvars.iv, 1
  br label %8, !llvm.loop !77

25:                                               ; preds = %8
  %26 = sext i32 %.041 to i64
  %27 = getelementptr inbounds i8, ptr %7, i64 %26
  store i8 0, ptr %27, align 1, !tbaa !25
  ret ptr %7
}